target datalayout = "e-m:e-p270:32:32-p271:32:32-p272:64:64-i64:64-i128:128-f80:128-n8:16:32:64-S128"
target triple = "x86_64-pc-linux-gnu"

; Function Attrs: mustprogress nounwind uwtable
define internal noundef signext i8 @_ZN6icu_77L18enumRangeLeadValueEPKviij(ptr noundef %0, i32 noundef %1, i32 noundef %2, i32 noundef %3) #1 {
  %5 = alloca i8, align 1
  %6 = alloca ptr, align 8
  %7 = alloca i32, align 4
  %8 = alloca i32, align 4
  %9 = alloca i32, align 4
  %10 = alloca ptr, align 8
  %11 = alloca i32, align 4
  store ptr %0, ptr %6, align 8, !tbaa !8
  store i32 %1, ptr %7, align 4, !tbaa !57
  store i32 %2, ptr %8, align 4, !tbaa !57
  store i32 %3, ptr %9, align 4, !tbaa !57
  call void @llvm.lifetime.start.p0(i64 8, ptr %10) #11
  %12 = load ptr, ptr %6, align 8, !tbaa !8
  store ptr %12, ptr %10, align 8, !tbaa !160
  %13 = load i32, ptr %9, align 4, !tbaa !57
  %14 = icmp eq i32 %13, -1
  br i1 %14, label %15, label %16

15:                                               ; preds = %4
  store i32 0, ptr %9, align 4, !tbaa !57
  br label %23

16:                                               ; preds = %4
  %17 = load i32, ptr %9, align 4, !tbaa !57
  %18 = icmp eq i32 %17, 192
  br i1 %18, label %19, label %20

19:                                               ; preds = %16
  store i32 256, ptr %9, align 4, !tbaa !57
  br label %22

20:                                               ; preds = %16
  %21 = load ptr, ptr %10, align 8, !tbaa !160
  store i32 512, ptr %21, align 4, !tbaa !57
  store i8 0, ptr %5, align 1
  store i32 1, ptr %11, align 4
  br label %39

22:                                               ; preds = %19
  br label %23

23:                                               ; preds = %22, %15
  %24 = load ptr, ptr %10, align 8, !tbaa !160
  %25 = load i32, ptr %24, align 4, !tbaa !57
  %26 = icmp slt i32 %25, 0
  br i1 %26, label %27, label %30

27:                                               ; preds = %23
  %28 = load i32, ptr %9, align 4, !tbaa !57
  %29 = load ptr, ptr %10, align 8, !tbaa !160
  store i32 %28, ptr %29, align 4, !tbaa !57
  br label %38

30:                                               ; preds = %23
  %31 = load ptr, ptr %10, align 8, !tbaa !160
  %32 = load i32, ptr %31, align 4, !tbaa !57
  %33 = load i32, ptr %9, align 4, !tbaa !57
  %34 = icmp ne i32 %32, %33
  br i1 %34, label %35, label %37

35:                                               ; preds = %30
  %36 = load ptr, ptr %10, align 8, !tbaa !160
  store i32 512, ptr %36, align 4, !tbaa !57
  store i8 0, ptr %5, align 1
  store i32 1, ptr %11, align 4
  br label %39

37:                                               ; preds = %30
  br label %38

38:                                               ; preds = %37, %27
  store i8 1, ptr %5, align 1
  store i32 1, ptr %11, align 4
  br label %39

39:                                               ; preds = %38, %35, %20
  call void @llvm.lifetime.end.p0(i64 8, ptr %10) #11
  %40 = load i8, ptr %5, align 1
  ret i8 %40
}