; Function Attrs: mustprogress nofree norecurse nosync nounwind willreturn memory(argmem: readwrite) uwtable
define internal noundef signext range(i8 0, 2) i8 @_ZN6icu_77L18enumRangeLeadValueEPKviij(ptr noundef captures(none) %0, i32 %1, i32 %2, i32 noundef %3) #9 {
  switch i32 %3, label %.sink.split [
    i32 -1, label %6
    i32 192, label %5
  ]

5:                                                ; preds = %4
  br label %6

6:                                                ; preds = %4, %5
  %.010 = phi i32 [ 256, %5 ], [ 0, %4 ]
  %7 = load i32, ptr %0, align 4, !tbaa !66
  %8 = icmp slt i32 %7, 0
  br i1 %8, label %.sink.split, label %9

9:                                                ; preds = %6
  %.not = icmp eq i32 %7, %.010
  br i1 %.not, label %10, label %.sink.split

.sink.split:                                      ; preds = %9, %6, %4
  %.010.sink = phi i32 [ 512, %4 ], [ %.010, %6 ], [ 512, %9 ]
  %.0.ph = phi i8 [ 0, %4 ], [ 1, %6 ], [ 0, %9 ]
  store i32 %.010.sink, ptr %0, align 4, !tbaa !66
  br label %10

10:                                               ; preds = %.sink.split, %9
  %.0 = phi i8 [ 1, %9 ], [ %.0.ph, %.sink.split ]
  ret i8 %.0
}